target datalayout = "e-m:e-p270:32:32-p271:32:32-p272:64:64-i64:64-i128:128-f80:128-n8:16:32:64-S128"
target triple = "x86_64-pc-linux-gnu"

%struct.ossl_method_store_st = type { ptr, ptr, ptr, ptr, i64, i32 }
%struct.ALGORITHM = type { i32, ptr, ptr }

@.str = private unnamed_addr constant [38 x i8] c"../openssl/crypto/property/property.c\00", align 1

; Function Attrs: inlinehint nounwind uwtable
define internal i32 @ossl_sa_ALGORITHM_set(ptr noundef %0, i64 noundef %1, ptr noundef %2) #3 {
  %4 = alloca ptr, align 8
  %5 = alloca i64, align 8
  %6 = alloca ptr, align 8
  store ptr %0, ptr %4, align 8, !tbaa !25
  store i64 %1, ptr %5, align 8, !tbaa !26
  store ptr %2, ptr %6, align 8, !tbaa !3
  %7 = load ptr, ptr %4, align 8, !tbaa !25
  %8 = load i64, ptr %5, align 8, !tbaa !26
  %9 = load ptr, ptr %6, align 8, !tbaa !3
  %10 = call i32 @ossl_sa_set(ptr noundef %7, i64 noundef %8, ptr noundef %9)
  ret i32 %10
}

; Function Attrs: inlinehint nounwind uwtable
define internal void @lh_QUERY_free(ptr noundef %0) #3 {
  %2 = alloca ptr, align 8
  store ptr %0, ptr %2, align 8, !tbaa !74
  %3 = load ptr, ptr %2, align 8, !tbaa !74
  call void @OPENSSL_LH_free(ptr noundef %3)
  ret void
}

; Function Attrs: inlinehint nounwind uwtable
define internal void @lh_QUERY_doall(ptr noundef %0, ptr noundef %1) #3 {
  %3 = alloca ptr, align 8
  %4 = alloca ptr, align 8
  store ptr %0, ptr %3, align 8, !tbaa !74
  store ptr %1, ptr %4, align 8, !tbaa !3
  %5 = load ptr, ptr %3, align 8, !tbaa !74
  %6 = load ptr, ptr %4, align 8, !tbaa !3
  call void @OPENSSL_LH_doall(ptr noundef %5, ptr noundef %6)
  ret void
}

; Function Attrs: inlinehint nounwind uwtable
define internal void @sk_IMPLEMENTATION_pop_free(ptr noundef %0, ptr noundef %1) #3 {
  %3 = alloca ptr, align 8
  %4 = alloca ptr, align 8
  store ptr %0, ptr %3, align 8, !tbaa !53
  store ptr %1, ptr %4, align 8, !tbaa !3
  %5 = load ptr, ptr %3, align 8, !tbaa !53
  %6 = load ptr, ptr %4, align 8, !tbaa !3
  call void @OPENSSL_sk_pop_free(ptr noundef %5, ptr noundef %6)
  ret void
}

; Function Attrs: nounwind uwtable
define internal void @alg_cleanup(i64 noundef %0, ptr noundef %1, ptr noundef %2) #0 {
  %4 = alloca i64, align 8
  %5 = alloca ptr, align 8
  %6 = alloca ptr, align 8
  %7 = alloca ptr, align 8
  store i64 %0, ptr %4, align 8, !tbaa !26
  store ptr %1, ptr %5, align 8, !tbaa !3
  store ptr %2, ptr %6, align 8, !tbaa !3
  call void @llvm.lifetime.start.p0(i64 8, ptr %7) #7
  %8 = load ptr, ptr %6, align 8, !tbaa !3
  store ptr %8, ptr %7, align 8, !tbaa !16
  %9 = load ptr, ptr %5, align 8, !tbaa !3
  %10 = icmp ne ptr %9, null
  br i1 %10, label %11, label %22

11:                                               ; preds = %3
  %12 = load ptr, ptr %5, align 8, !tbaa !3
  %13 = getelementptr inbounds nuw %struct.ALGORITHM, ptr %12, i32 0, i32 1
  %14 = load ptr, ptr %13, align 8, !tbaa !27
  call void @sk_IMPLEMENTATION_pop_free(ptr noundef %14, ptr noundef @impl_free)
  %15 = load ptr, ptr %5, align 8, !tbaa !3
  %16 = getelementptr inbounds nuw %struct.ALGORITHM, ptr %15, i32 0, i32 2
  %17 = load ptr, ptr %16, align 8, !tbaa !31
  call void @lh_QUERY_doall(ptr noundef %17, ptr noundef @impl_cache_free)
  %18 = load ptr, ptr %5, align 8, !tbaa !3
  %19 = getelementptr inbounds nuw %struct.ALGORITHM, ptr %18, i32 0, i32 2
  %20 = load ptr, ptr %19, align 8, !tbaa !31
  call void @lh_QUERY_free(ptr noundef %20)
  %21 = load ptr, ptr %5, align 8, !tbaa !3
  call void @CRYPTO_free(ptr noundef %21, ptr noundef @.str, i32 noundef 233)
  br label %22

22:                                               ; preds = %11, %3
  %23 = load ptr, ptr %7, align 8, !tbaa !16
  %24 = icmp ne ptr %23, null
  br i1 %24, label %25, label %31

25:                                               ; preds = %22
  %26 = load ptr, ptr %7, align 8, !tbaa !16
  %27 = getelementptr inbounds nuw %struct.ossl_method_store_st, ptr %26, i32 0, i32 1
  %28 = load ptr, ptr %27, align 8, !tbaa !22
  %29 = load i64, ptr %4, align 8, !tbaa !26
  %30 = call i32 @ossl_sa_ALGORITHM_set(ptr noundef %28, i64 noundef %29, ptr noundef null)
  br label %31

31:                                               ; preds = %25, %22
  call void @llvm.lifetime.end.p0(i64 8, ptr %7) #7
  ret void
}