; Function Attrs: nounwind uwtable
define internal void @alg_cleanup(i64 noundef %0, ptr noundef %1, ptr noundef readonly captures(address_is_null) %2) #0 {
  %.not = icmp eq ptr %1, null
  br i1 %.not, label %10, label %4

4:                                                ; preds = %3
  %5 = getelementptr inbounds nuw i8, ptr %1, i64 8
  %6 = load ptr, ptr %5, align 8, !tbaa !18
  tail call void @OPENSSL_sk_pop_free(ptr noundef %6, ptr noundef nonnull @impl_free) #7
  %7 = getelementptr inbounds nuw i8, ptr %1, i64 16
  %8 = load ptr, ptr %7, align 8, !tbaa !22
  tail call void @OPENSSL_LH_doall(ptr noundef %8, ptr noundef nonnull @impl_cache_free) #7
  %9 = load ptr, ptr %7, align 8, !tbaa !22
  tail call void @OPENSSL_LH_free(ptr noundef %9) #7
  tail call void @CRYPTO_free(ptr noundef nonnull %1, ptr noundef nonnull @.str, i32 noundef 233) #7
  br label %10

10:                                               ; preds = %4, %3
  %.not9 = icmp eq ptr %2, null
  br i1 %.not9, label %15, label %11

11:                                               ; preds = %10
  %12 = getelementptr inbounds nuw i8, ptr %2, i64 8
  %13 = load ptr, ptr %12, align 8, !tbaa !15
  %14 = tail call i32 @ossl_sa_set(ptr noundef %13, i64 noundef %0, ptr noundef null) #7
  br label %15

15:                                               ; preds = %11, %10
  ret void
}